(dp1
S'failed'
p2
(lp3
S'18'
p4
asS'source_names'
p5
(lp6
S'.'
asS'ids'
p7
(dp8
I1
(S'C:\\django\\kids-tv\\kid\\tests.py'
S'kid.tests'
p9
S'KidTestCase.test_admin_page'
tp10
sI2
(S'C:\\django\\kids-tv\\kid\\tests.py'
g9
S'KidTestCase.test_create_kid'
tp11
sI3
(S'C:\\django\\kids-tv\\kid\\tests.py'
g9
S'KidTestCase.test_delete_kid'
tp12
sI4
(S'C:\\django\\kids-tv\\kid\\tests.py'
g9
S'KidTestCase.test_delete_kid_request'
tp13
sI5
(S'C:\\django\\kids-tv\\kid\\tests.py'
g9
S'KidTestCase.test_feed_page'
tp14
sI6
(S'C:\\django\\kids-tv\\kid\\tests.py'
g9
S'KidTestCase.test_login'
tp15
sI7
(S'C:\\django\\kids-tv\\kid\\tests.py'
g9
S'KidTestCase.test_logout'
tp16
sI8
(S'C:\\django\\kids-tv\\kid\\tests.py'
g9
S'KidTestCase.test_profile_page'
tp17
sI9
(S'C:\\django\\kids-tv\\kid\\tests.py'
S'kid.tests'
p18
S'KidTestCase.add_test'
tp19
sI10
(S'C:\\django\\kids-tv\\kid\\tests.py'
g18
S'KidTestCase.admin_page_test'
tp20
sI11
(S'C:\\django\\kids-tv\\kid\\tests.py'
g18
S'KidTestCase.change_password_test'
tp21
sI12
(S'C:\\django\\kids-tv\\kid\\tests.py'
g18
S'KidTestCase.contact_test'
tp22
sI13
(S'C:\\django\\kids-tv\\kid\\tests.py'
g18
S'KidTestCase.create_kid_test'
tp23
sI14
(S'C:\\django\\kids-tv\\kid\\tests.py'
g18
S'KidTestCase.delete_kid_request_test'
tp24
sI15
(S'C:\\django\\kids-tv\\kid\\tests.py'
g18
S'KidTestCase.delete_kid_test'
tp25
sI16
(S'C:\\django\\kids-tv\\kid\\tests.py'
g18
S'KidTestCase.delete_test'
tp26
sI17
(S'C:\\django\\kids-tv\\kid\\tests.py'
g18
S'KidTestCase.detail_favorite_test'
tp27
sI18
(S'C:\\django\\kids-tv\\kid\\tests.py'
S'kid.tests'
p28
S'KidTestCase.admin_category1_page_test'
tp29
ss.