(dp1
S'failed'
p2
(lp3
sS'source_names'
p4
(lp5
S'.'
asS'ids'
p6
(dp7
I1
(S'C:\\django\\kids-tv\\kid\\tests.py'
S'kid.tests'
p8
S'KidTestCase.test_admin_page'
tp9
sI2
(S'C:\\django\\kids-tv\\kid\\tests.py'
g8
S'KidTestCase.test_create_kid'
tp10
sI3
(S'C:\\django\\kids-tv\\kid\\tests.py'
g8
S'KidTestCase.test_delete_kid'
tp11
sI4
(S'C:\\django\\kids-tv\\kid\\tests.py'
g8
S'KidTestCase.test_delete_kid_request'
tp12
sI5
(S'C:\\django\\kids-tv\\kid\\tests.py'
g8
S'KidTestCase.test_feed_page'
tp13
sI6
(S'C:\\django\\kids-tv\\kid\\tests.py'
g8
S'KidTestCase.test_login'
tp14
sI7
(S'C:\\django\\kids-tv\\kid\\tests.py'
g8
S'KidTestCase.test_logout'
tp15
sI8
(S'C:\\django\\kids-tv\\kid\\tests.py'
g8
S'KidTestCase.test_profile_page'
tp16
sI9
(S'C:\\django\\kids-tv\\kid\\tests.py'
S'kid.tests'
p17
S'KidTestCase.add_test'
tp18
sI10
(S'C:\\django\\kids-tv\\kid\\tests.py'
g17
S'KidTestCase.admin_page_test'
tp19
sI11
(S'C:\\django\\kids-tv\\kid\\tests.py'
g17
S'KidTestCase.change_password_test'
tp20
sI12
(S'C:\\django\\kids-tv\\kid\\tests.py'
g17
S'KidTestCase.contact_test'
tp21
sI13
(S'C:\\django\\kids-tv\\kid\\tests.py'
g17
S'KidTestCase.create_kid_test'
tp22
sI14
(S'C:\\django\\kids-tv\\kid\\tests.py'
g17
S'KidTestCase.delete_kid_request_test'
tp23
sI15
(S'C:\\django\\kids-tv\\kid\\tests.py'
g17
S'KidTestCase.delete_kid_test'
tp24
sI16
(S'C:\\django\\kids-tv\\kid\\tests.py'
g17
S'KidTestCase.delete_test'
tp25
sI17
(S'C:\\django\\kids-tv\\kid\\tests.py'
g17
S'KidTestCase.detail_favorite_test'
tp26
ss.